; Function Attrs: mustprogress uwtable
define void @_ZN8proxygen15AsyncTimeoutSetC2EPN5folly14TimeoutManagerENSt6chrono8durationIlSt5ratioILl1ELl1000EEEES8_PNS0_12TimeoutClockE(ptr noundef nonnull align 8 dereferenceable(249) %this, ptr noundef %timeoutManager, i64 %intervalMS.coerce, i64 %atMostEveryN.coerce, ptr noundef %timeoutClock) unnamed_addr #6 align 2 personality ptr @__gxx_personality_v0 {
invoke.cont:
  tail call void @_ZN5folly12AsyncTimeoutC2EPNS_14TimeoutManagerE(ptr noundef nonnull align 8 dereferenceable(192) %this, ptr noundef %timeoutManager)
  %0 = getelementptr inbounds i8, ptr %this, i64 192
  %guardCount_.i.i = getelementptr inbounds i8, ptr %this, i64 200
  store i32 0, ptr %guardCount_.i.i, align 8
  %destroyPending_.i = getelementptr inbounds i8, ptr %this, i64 204
  store i8 0, ptr %destroyPending_.i, align 4
  store ptr getelementptr inbounds ({ [6 x ptr], [6 x ptr] }, ptr @_ZTVN8proxygen15AsyncTimeoutSetE, i64 0, i32 0, i64 2), ptr %this, align 8
  store ptr getelementptr inbounds ({ [6 x ptr], [6 x ptr] }, ptr @_ZTVN8proxygen15AsyncTimeoutSetE, i64 0, i32 1, i64 2), ptr %0, align 8
  %tobool.not = icmp eq ptr %timeoutClock, null
  br i1 %tobool.not, label %cond.false, label %cond.end

cond.false:                                       ; preds = %invoke.cont
  %1 = load atomic i8, ptr @_ZGVZN8proxygen15getTimeoutClockEvE12timeoutClock acquire, align 8
  %guard.uninitialized.i = icmp eq i8 %1, 0
  br i1 %guard.uninitialized.i, label %init.check.i, label %cond.end, !prof !4

init.check.i:                                     ; preds = %cond.false
  %2 = tail call i32 @__cxa_guard_acquire(ptr nonnull @_ZGVZN8proxygen15getTimeoutClockEvE12timeoutClock) #14
  %tobool.not.i = icmp eq i32 %2, 0
  br i1 %tobool.not.i, label %cond.end, label %invoke.cont.i

invoke.cont.i:                                    ; preds = %init.check.i
  store ptr getelementptr inbounds ({ [5 x ptr] }, ptr @_ZTVN8proxygen18SimpleTimeoutClockE, i64 0, i32 0, i64 2), ptr @_ZZN8proxygen15getTimeoutClockEvE12timeoutClock, align 8
  tail call void @__cxa_guard_release(ptr nonnull @_ZGVZN8proxygen15getTimeoutClockEvE12timeoutClock) #14
  br label %cond.end

cond.end:                                         ; preds = %invoke.cont.i, %init.check.i, %cond.false, %invoke.cont
  %cond-lvalue = phi ptr [ %timeoutClock, %invoke.cont ], [ @_ZZN8proxygen15getTimeoutClockEvE12timeoutClock, %cond.false ], [ @_ZZN8proxygen15getTimeoutClockEvE12timeoutClock, %init.check.i ], [ @_ZZN8proxygen15getTimeoutClockEvE12timeoutClock, %invoke.cont.i ]
  %timeoutClock_ = getelementptr inbounds i8, ptr %this, i64 208
  store ptr %cond-lvalue, ptr %timeoutClock_, align 8
  %head_ = getelementptr inbounds i8, ptr %this, i64 216
  %interval_ = getelementptr inbounds i8, ptr %this, i64 232
  tail call void @llvm.memset.p0.i64(ptr noundef nonnull align 8 dereferenceable(16) %head_, i8 0, i64 16, i1 false)
  store i64 %intervalMS.coerce, ptr %interval_, align 8
  %atMostEveryN_ = getelementptr inbounds i8, ptr %this, i64 240
  store i64 %atMostEveryN.coerce, ptr %atMostEveryN_, align 8
  %inTimeoutExpired_ = getelementptr inbounds i8, ptr %this, i64 248
  store i8 0, ptr %inTimeoutExpired_, align 8
  ret void
}